target datalayout = "e-m:e-p270:32:32-p271:32:32-p272:64:64-i64:64-i128:128-f80:128-n8:16:32:64-S128"
target triple = "x86_64-pc-linux-gnu"

%union.pthread_mutex_t = type { %struct.__pthread_mutex_s }
%struct.__pthread_mutex_s = type { i32, i32, i32, i32, i32, i16, i16, %struct.__pthread_internal_list }
%struct.__pthread_internal_list = type { ptr, ptr }
%"class.std::__1::recursive_mutex" = type { %union.pthread_mutex_t }
%union.pthread_mutexattr_t = type { i32 }

@.str.1 = private unnamed_addr constant [35 x i8] c"recursive_mutex constructor failed\00", align 1

; Function Attrs: inlinehint mustprogress nounwind uwtable
define linkonce_odr hidden noundef i32 @_ZNSt3__129__libcpp_recursive_mutex_initB8ne210000EP15pthread_mutex_t(ptr noundef %0) #2 comdat {
  %2 = alloca i32, align 4
  %3 = alloca ptr, align 8
  %4 = alloca %union.pthread_mutexattr_t, align 4
  %5 = alloca i32, align 4
  %6 = alloca i32, align 4
  store ptr %0, ptr %3, align 8, !tbaa !12
  call void @llvm.lifetime.start.p0(i64 4, ptr %4) #11
  call void @llvm.lifetime.start.p0(i64 4, ptr %5) #11
  %7 = call i32 @pthread_mutexattr_init(ptr noundef %4) #11
  store i32 %7, ptr %5, align 4, !tbaa !10
  %8 = load i32, ptr %5, align 4, !tbaa !10
  %9 = icmp ne i32 %8, 0
  br i1 %9, label %10, label %12

10:                                               ; preds = %1
  %11 = load i32, ptr %5, align 4, !tbaa !10
  store i32 %11, ptr %2, align 4
  store i32 1, ptr %6, align 4
  br label %36

12:                                               ; preds = %1
  %13 = call i32 @pthread_mutexattr_settype(ptr noundef %4, i32 noundef 1) #11
  store i32 %13, ptr %5, align 4, !tbaa !10
  %14 = load i32, ptr %5, align 4, !tbaa !10
  %15 = icmp ne i32 %14, 0
  br i1 %15, label %16, label %19

16:                                               ; preds = %12
  %17 = call i32 @pthread_mutexattr_destroy(ptr noundef %4) #11
  %18 = load i32, ptr %5, align 4, !tbaa !10
  store i32 %18, ptr %2, align 4
  store i32 1, ptr %6, align 4
  br label %36

19:                                               ; preds = %12
  %20 = load ptr, ptr %3, align 8, !tbaa !12
  %21 = call i32 @pthread_mutex_init(ptr noundef %20, ptr noundef %4) #11
  store i32 %21, ptr %5, align 4, !tbaa !10
  %22 = load i32, ptr %5, align 4, !tbaa !10
  %23 = icmp ne i32 %22, 0
  br i1 %23, label %24, label %27

24:                                               ; preds = %19
  %25 = call i32 @pthread_mutexattr_destroy(ptr noundef %4) #11
  %26 = load i32, ptr %5, align 4, !tbaa !10
  store i32 %26, ptr %2, align 4
  store i32 1, ptr %6, align 4
  br label %36

27:                                               ; preds = %19
  %28 = call i32 @pthread_mutexattr_destroy(ptr noundef %4) #11
  store i32 %28, ptr %5, align 4, !tbaa !10
  %29 = load i32, ptr %5, align 4, !tbaa !10
  %30 = icmp ne i32 %29, 0
  br i1 %30, label %31, label %35

31:                                               ; preds = %27
  %32 = load ptr, ptr %3, align 8, !tbaa !12
  %33 = call i32 @pthread_mutex_destroy(ptr noundef %32) #11
  %34 = load i32, ptr %5, align 4, !tbaa !10
  store i32 %34, ptr %2, align 4
  store i32 1, ptr %6, align 4
  br label %36

35:                                               ; preds = %27
  store i32 0, ptr %2, align 4
  store i32 1, ptr %6, align 4
  br label %36

36:                                               ; preds = %35, %31, %24, %16, %10
  call void @llvm.lifetime.end.p0(i64 4, ptr %5) #11
  call void @llvm.lifetime.end.p0(i64 4, ptr %4) #11
  %37 = load i32, ptr %2, align 4
  ret i32 %37
}

; Function Attrs: mustprogress uwtable
define dso_local void @_ZNSt3__115recursive_mutexC2Ev(ptr noundef nonnull align 8 dereferenceable(40) %0) unnamed_addr #0 align 2 {
  %2 = alloca ptr, align 8
  %3 = alloca i32, align 4
  store ptr %0, ptr %2, align 8, !tbaa !13
  %4 = load ptr, ptr %2, align 8
  call void @llvm.lifetime.start.p0(i64 4, ptr %3) #11
  %5 = getelementptr inbounds nuw %"class.std::__1::recursive_mutex", ptr %4, i32 0, i32 0
  %6 = call noundef i32 @_ZNSt3__129__libcpp_recursive_mutex_initB8ne210000EP15pthread_mutex_t(ptr noundef %5)
  store i32 %6, ptr %3, align 4, !tbaa !10
  %7 = load i32, ptr %3, align 4, !tbaa !10
  %8 = icmp ne i32 %7, 0
  br i1 %8, label %9, label %11

9:                                                ; preds = %1
  %10 = load i32, ptr %3, align 4, !tbaa !10
  call void @_ZNSt3__120__throw_system_errorEiPKc(i32 noundef %10, ptr noundef @.str.1) #12
  unreachable

11:                                               ; preds = %1
  call void @llvm.lifetime.end.p0(i64 4, ptr %3) #11
  ret void
}