; Function Attrs: mustprogress uwtable
define dso_local void @_ZNSt3__115recursive_mutexC2Ev(ptr noundef nonnull align 8 dereferenceable(40) %0) unnamed_addr #0 align 2 {
  %2 = alloca %union.pthread_mutexattr_t, align 4
  call void @llvm.lifetime.start.p0(i64 4, ptr nonnull %2) #10
  %3 = call i32 @pthread_mutexattr_init(ptr noundef nonnull %2) #10
  %.not.i = icmp eq i32 %3, 0
  br i1 %.not.i, label %4, label %14

4:                                                ; preds = %1
  %5 = call i32 @pthread_mutexattr_settype(ptr noundef nonnull %2, i32 noundef 1) #10
  %.not14.i = icmp eq i32 %5, 0
  br i1 %.not14.i, label %8, label %6

6:                                                ; preds = %4
  %7 = call i32 @pthread_mutexattr_destroy(ptr noundef nonnull %2) #10
  br label %14

8:                                                ; preds = %4
  %9 = call i32 @pthread_mutex_init(ptr noundef nonnull %0, ptr noundef nonnull %2) #10
  %.not15.i = icmp eq i32 %9, 0
  %10 = call i32 @pthread_mutexattr_destroy(ptr noundef nonnull %2) #10
  br i1 %.not15.i, label %11, label %14

11:                                               ; preds = %8
  %.not16.i = icmp eq i32 %10, 0
  br i1 %.not16.i, label %15, label %12

12:                                               ; preds = %11
  %13 = call i32 @pthread_mutex_destroy(ptr noundef nonnull %0) #10
  br label %14

14:                                               ; preds = %6, %12, %1, %8
  %.0.i.ph = phi i32 [ %9, %8 ], [ %3, %1 ], [ %10, %12 ], [ %5, %6 ]
  call void @llvm.lifetime.end.p0(i64 4, ptr nonnull %2) #10
  call void @_ZNSt3__120__throw_system_errorEiPKc(i32 noundef %.0.i.ph, ptr noundef nonnull @.str.1) #11
  unreachable

15:                                               ; preds = %11
  call void @llvm.lifetime.end.p0(i64 4, ptr nonnull %2) #10
  ret void
}